target datalayout = "e-m:e-p270:32:32-p271:32:32-p272:64:64-i64:64-i128:128-f80:128-n8:16:32:64-S128"
target triple = "x86_64-pc-linux-gnu"

%class.Rewriter = type { ptr, %class.constantPoolHandle, ptr, %class.GrowableArray, %class.GrowableArray, %class.GrowableArray, %class.GrowableArray, %class.GrowableArray, i32, i32, i32, i32, %class.GrowableArray.0, %class.GrowableArray.3, %class.GrowableArray.6 }
%class.constantPoolHandle = type { ptr, ptr }
%class.GrowableArray = type { %class.GrowableArrayWithAllocator, %class.GrowableArrayMetadata }
%class.GrowableArrayWithAllocator = type { %class.GrowableArrayView }
%class.GrowableArrayView = type { %class.GrowableArrayBase, ptr }
%class.GrowableArrayBase = type { i32, i32 }
%class.GrowableArrayMetadata = type { i64 }
%class.GrowableArray.0 = type { %class.GrowableArrayWithAllocator.1, %class.GrowableArrayMetadata }
%class.GrowableArrayWithAllocator.1 = type { %class.GrowableArrayView.2 }
%class.GrowableArrayView.2 = type { %class.GrowableArrayBase, ptr }
%class.GrowableArray.3 = type { %class.GrowableArrayWithAllocator.4, %class.GrowableArrayMetadata }
%class.GrowableArrayWithAllocator.4 = type { %class.GrowableArrayView.5 }
%class.GrowableArrayView.5 = type { %class.GrowableArrayBase, ptr }
%class.GrowableArray.6 = type { %class.GrowableArrayWithAllocator.7, %class.GrowableArrayMetadata }
%class.GrowableArrayWithAllocator.7 = type { %class.GrowableArrayView.8 }
%class.GrowableArrayView.8 = type { %class.GrowableArrayBase, ptr }
%class.Array = type { i32, [1 x ptr] }
%class.anon.35 = type { i8 }

; Function Attrs: mustprogress nounwind uwtable
define linkonce_odr hidden noundef i64 @_ZZN5ArrayIP6MethodE20base_offset_in_bytesEvENKUlvE_clEv(ptr noundef nonnull align 1 dereferenceable(1) %0) #1 comdat align 2 {
  %2 = alloca ptr, align 8
  %3 = alloca [16 x i8], align 16
  %4 = alloca ptr, align 8
  %5 = alloca ptr, align 8
  store ptr %0, ptr %2, align 8
  %6 = getelementptr inbounds [16 x i8], ptr %3, i64 0, i64 0
  store ptr %6, ptr %4, align 8
  %7 = load ptr, ptr %4, align 8
  %8 = getelementptr inbounds %class.Array, ptr %7, i32 0, i32 1
  store ptr %8, ptr %5, align 8
  %9 = load ptr, ptr %5, align 8
  %10 = getelementptr inbounds [16 x i8], ptr %3, i64 0, i64 0
  %11 = ptrtoint ptr %9 to i64
  %12 = ptrtoint ptr %10 to i64
  %13 = sub i64 %11, %12
  ret i64 %13
}

; Function Attrs: mustprogress nounwind uwtable
define linkonce_odr hidden noundef i32 @_ZN5ArrayIP6MethodE20base_offset_in_bytesEv() #1 comdat align 2 {
  %1 = alloca %class.anon.35, align 1
  %2 = call noundef i64 @_ZZN5ArrayIP6MethodE20base_offset_in_bytesEvENKUlvE_clEv(ptr noundef nonnull align 1 dereferenceable(1) %1)
  %3 = trunc i64 %2 to i32
  ret i32 %3
}

; Function Attrs: mustprogress nounwind uwtable
define linkonce_odr hidden noundef ptr @_ZNK5ArrayIP6MethodE4dataEv(ptr noundef nonnull align 8 dereferenceable(16) %0) #1 comdat align 2 {
  %2 = alloca ptr, align 8
  store ptr %0, ptr %2, align 8
  %3 = load ptr, ptr %2, align 8
  %4 = call noundef i32 @_ZN5ArrayIP6MethodE20base_offset_in_bytesEv()
  %5 = sext i32 %4 to i64
  %6 = getelementptr inbounds i8, ptr %3, i64 %5
  ret ptr %6
}

; Function Attrs: mustprogress nounwind uwtable
define linkonce_odr hidden noundef ptr @_ZNK5ArrayIP6MethodE2atEi(ptr noundef nonnull align 8 dereferenceable(16) %0, i32 noundef %1) #1 comdat align 2 {
  %3 = alloca ptr, align 8
  %4 = alloca i32, align 4
  store ptr %0, ptr %3, align 8
  store i32 %1, ptr %4, align 4
  %5 = load ptr, ptr %3, align 8
  %6 = call noundef ptr @_ZNK5ArrayIP6MethodE4dataEv(ptr noundef nonnull align 8 dereferenceable(16) %5)
  %7 = load i32, ptr %4, align 4
  %8 = sext i32 %7 to i64
  %9 = getelementptr inbounds ptr, ptr %6, i64 %8
  %10 = load ptr, ptr %9, align 8
  ret ptr %10
}

; Function Attrs: mustprogress nounwind uwtable
define linkonce_odr hidden noundef i32 @_ZNK5ArrayIP6MethodE6lengthEv(ptr noundef nonnull align 8 dereferenceable(16) %0) #1 comdat align 2 {
  %2 = alloca ptr, align 8
  store ptr %0, ptr %2, align 8
  %3 = load ptr, ptr %2, align 8
  %4 = getelementptr inbounds %class.Array, ptr %3, i32 0, i32 0
  %5 = load i32, ptr %4, align 8
  ret i32 %5
}

; Function Attrs: mustprogress nounwind uwtable
define hidden void @_ZN8Rewriter17restore_bytecodesEP6Thread(ptr noundef nonnull align 8 dereferenceable(240) %0, ptr noundef %1) #1 align 2 {
  %3 = alloca ptr, align 8
  %4 = alloca ptr, align 8
  %5 = alloca i32, align 4
  %6 = alloca i8, align 1
  %7 = alloca i32, align 4
  %8 = alloca ptr, align 8
  store ptr %0, ptr %3, align 8
  store ptr %1, ptr %4, align 8
  %9 = load ptr, ptr %3, align 8
  %10 = getelementptr inbounds %class.Rewriter, ptr %9, i32 0, i32 2
  %11 = load ptr, ptr %10, align 8
  %12 = call noundef i32 @_ZNK5ArrayIP6MethodE6lengthEv(ptr noundef nonnull align 8 dereferenceable(16) %11)
  store i32 %12, ptr %5, align 4
  store i8 0, ptr %6, align 1
  %13 = load i32, ptr %5, align 4
  %14 = sub nsw i32 %13, 1
  store i32 %14, ptr %7, align 4
  br label %15

15:                                               ; preds = %25, %2
  %16 = load i32, ptr %7, align 4
  %17 = icmp sge i32 %16, 0
  br i1 %17, label %18, label %28

18:                                               ; preds = %15
  %19 = getelementptr inbounds %class.Rewriter, ptr %9, i32 0, i32 2
  %20 = load ptr, ptr %19, align 8
  %21 = load i32, ptr %7, align 4
  %22 = call noundef ptr @_ZNK5ArrayIP6MethodE2atEi(ptr noundef nonnull align 8 dereferenceable(16) %20, i32 noundef %21)
  store ptr %22, ptr %8, align 8
  %23 = load ptr, ptr %4, align 8
  %24 = load ptr, ptr %8, align 8
  call void @_ZN8Rewriter11scan_methodEP6ThreadP6MethodbPb(ptr noundef nonnull align 8 dereferenceable(240) %9, ptr noundef %23, ptr noundef %24, i1 noundef zeroext true, ptr noundef %6)
  br label %25

25:                                               ; preds = %18
  %26 = load i32, ptr %7, align 4
  %27 = add nsw i32 %26, -1
  store i32 %27, ptr %7, align 4
  br label %15, !llvm.loop !9

28:                                               ; preds = %15
  ret void
}