; Function Attrs: mustprogress nounwind uwtable
define hidden void @_ZN8Rewriter17restore_bytecodesEP6Thread(ptr noundef nonnull align 8 dereferenceable(240) %0, ptr noundef %1) local_unnamed_addr #0 align 2 {
  %3 = alloca i8, align 1
  %4 = getelementptr inbounds i8, ptr %0, i64 24
  %5 = load ptr, ptr %4, align 8
  %6 = load i32, ptr %5, align 8
  %7 = icmp sgt i32 %6, 0
  br i1 %7, label %.lr.ph.preheader, label %._crit_edge

.lr.ph.preheader:                                 ; preds = %2
  %8 = zext nneg i32 %6 to i64
  br label %.lr.ph

.lr.ph:                                           ; preds = %.lr.ph.preheader, %.lr.ph
  %indvars.iv = phi i64 [ %8, %.lr.ph.preheader ], [ %indvars.iv.next, %.lr.ph ]
  %indvars.iv.next = add nsw i64 %indvars.iv, -1
  %9 = load ptr, ptr %4, align 8
  %10 = getelementptr ptr, ptr %9, i64 %indvars.iv
  %11 = load ptr, ptr %10, align 8
  call void @_ZN8Rewriter11scan_methodEP6ThreadP6MethodbPb(ptr noundef nonnull align 8 dereferenceable(240) %0, ptr noundef %1, ptr noundef %11, i1 noundef zeroext true, ptr noundef nonnull %3)
  %12 = icmp ugt i64 %indvars.iv, 1
  br i1 %12, label %.lr.ph, label %._crit_edge, !llvm.loop !10

._crit_edge:                                      ; preds = %.lr.ph, %2
  ret void
}